; ModuleID = '38/350.c'
source_filename = "38/350.c"
target datalayout = "e-m:e-p270:32:32-p271:32:32-p272:64:64-i64:64-f80:128-n8:16:32:64-S128"
target triple = "x86_64-pc-linux-gnu"

@.str = private unnamed_addr constant [3 x i8] c"%d\00", align 1
@.str.1 = private unnamed_addr constant [4 x i8] c"%lf\00", align 1
@.str.2 = private unnamed_addr constant [6 x i8] c"%.5f\0A\00", align 1

; Function Attrs: noinline nounwind uwtable
define dso_local i32 @main() #0 {
  %1 = alloca i32, align 4
  %2 = alloca i32, align 4
  %3 = alloca i32, align 4
  %4 = alloca i32, align 4
  %5 = alloca [1000 x i32], align 16
  %6 = alloca [100 x [100 x double]], align 16
  %7 = alloca [1000 x double], align 16
  %8 = alloca [1000 x double], align 16
  %9 = alloca [1000 x double], align 16
  %10 = alloca [1000 x double], align 16
  %11 = alloca [1000 x double], align 16
  store i32 0, i32* %1, align 4
  %12 = call i32 (i8*, ...) @__isoc99_scanf(i8* getelementptr inbounds ([3 x i8], [3 x i8]* @.str, i64 0, i64 0), i32* %4)
  store i32 0, i32* %2, align 4
  br label %13

13:                                               ; preds = %165, %0
  %14 = load i32, i32* %2, align 4
  %15 = load i32, i32* %4, align 4
  %16 = icmp slt i32 %14, %15
  br i1 %16, label %17, label %168

17:                                               ; preds = %13
  %18 = load i32, i32* %2, align 4
  %19 = sext i32 %18 to i64
  %20 = getelementptr inbounds [1000 x i32], [1000 x i32]* %5, i64 0, i64 %19
  %21 = call i32 (i8*, ...) @__isoc99_scanf(i8* getelementptr inbounds ([3 x i8], [3 x i8]* @.str, i64 0, i64 0), i32* %20)
  store i32 0, i32* %3, align 4
  br label %22

22:                                               ; preds = %37, %17
  %23 = load i32, i32* %3, align 4
  %24 = load i32, i32* %2, align 4
  %25 = sext i32 %24 to i64
  %26 = getelementptr inbounds [1000 x i32], [1000 x i32]* %5, i64 0, i64 %25
  %27 = load i32, i32* %26, align 4
  %28 = icmp slt i32 %23, %27
  br i1 %28, label %29, label %40

29:                                               ; preds = %22
  %30 = load i32, i32* %2, align 4
  %31 = sext i32 %30 to i64
  %32 = getelementptr inbounds [100 x [100 x double]], [100 x [100 x double]]* %6, i64 0, i64 %31
  %33 = load i32, i32* %3, align 4
  %34 = sext i32 %33 to i64
  %35 = getelementptr inbounds [100 x double], [100 x double]* %32, i64 0, i64 %34
  %36 = call i32 (i8*, ...) @__isoc99_scanf(i8* getelementptr inbounds ([4 x i8], [4 x i8]* @.str.1, i64 0, i64 0), double* %35)
  br label %37

37:                                               ; preds = %29
  %38 = load i32, i32* %3, align 4
  %39 = add nsw i32 %38, 1
  store i32 %39, i32* %3, align 4
  br label %22

40:                                               ; preds = %22
  %41 = load i32, i32* %2, align 4
  %42 = sext i32 %41 to i64
  %43 = getelementptr inbounds [1000 x double], [1000 x double]* %9, i64 0, i64 %42
  store double 0.000000e+00, double* %43, align 8
  %44 = load i32, i32* %2, align 4
  %45 = sext i32 %44 to i64
  %46 = getelementptr inbounds [1000 x double], [1000 x double]* %7, i64 0, i64 %45
  store double 0.000000e+00, double* %46, align 8
  store i32 0, i32* %3, align 4
  br label %47

47:                                               ; preds = %70, %40
  %48 = load i32, i32* %3, align 4
  %49 = load i32, i32* %2, align 4
  %50 = sext i32 %49 to i64
  %51 = getelementptr inbounds [1000 x i32], [1000 x i32]* %5, i64 0, i64 %50
  %52 = load i32, i32* %51, align 4
  %53 = icmp slt i32 %48, %52
  br i1 %53, label %54, label %73

54:                                               ; preds = %47
  %55 = load i32, i32* %2, align 4
  %56 = sext i32 %55 to i64
  %57 = getelementptr inbounds [1000 x double], [1000 x double]* %9, i64 0, i64 %56
  %58 = load double, double* %57, align 8
  %59 = load i32, i32* %2, align 4
  %60 = sext i32 %59 to i64
  %61 = getelementptr inbounds [100 x [100 x double]], [100 x [100 x double]]* %6, i64 0, i64 %60
  %62 = load i32, i32* %3, align 4
  %63 = sext i32 %62 to i64
  %64 = getelementptr inbounds [100 x double], [100 x double]* %61, i64 0, i64 %63
  %65 = load double, double* %64, align 8
  %66 = fadd double %58, %65
  %67 = load i32, i32* %2, align 4
  %68 = sext i32 %67 to i64
  %69 = getelementptr inbounds [1000 x double], [1000 x double]* %9, i64 0, i64 %68
  store double %66, double* %69, align 8
  br label %70

70:                                               ; preds = %54
  %71 = load i32, i32* %3, align 4
  %72 = add nsw i32 %71, 1
  store i32 %72, i32* %3, align 4
  br label %47

73:                                               ; preds = %47
  %74 = load i32, i32* %2, align 4
  %75 = sext i32 %74 to i64
  %76 = getelementptr inbounds [1000 x double], [1000 x double]* %9, i64 0, i64 %75
  %77 = load double, double* %76, align 8
  %78 = load i32, i32* %2, align 4
  %79 = sext i32 %78 to i64
  %80 = getelementptr inbounds [1000 x i32], [1000 x i32]* %5, i64 0, i64 %79
  %81 = load i32, i32* %80, align 4
  %82 = sitofp i32 %81 to double
  %83 = fdiv double %77, %82
  %84 = load i32, i32* %2, align 4
  %85 = sext i32 %84 to i64
  %86 = getelementptr inbounds [1000 x double], [1000 x double]* %10, i64 0, i64 %85
  store double %83, double* %86, align 8
  store i32 0, i32* %3, align 4
  br label %87

87:                                               ; preds = %129, %73
  %88 = load i32, i32* %3, align 4
  %89 = load i32, i32* %2, align 4
  %90 = sext i32 %89 to i64
  %91 = getelementptr inbounds [1000 x i32], [1000 x i32]* %5, i64 0, i64 %90
  %92 = load i32, i32* %91, align 4
  %93 = icmp slt i32 %88, %92
  br i1 %93, label %94, label %132

94:                                               ; preds = %87
  %95 = load i32, i32* %2, align 4
  %96 = sext i32 %95 to i64
  %97 = getelementptr inbounds [100 x [100 x double]], [100 x [100 x double]]* %6, i64 0, i64 %96
  %98 = load i32, i32* %3, align 4
  %99 = sext i32 %98 to i64
  %100 = getelementptr inbounds [100 x double], [100 x double]* %97, i64 0, i64 %99
  %101 = load double, double* %100, align 8
  %102 = load i32, i32* %2, align 4
  %103 = sext i32 %102 to i64
  %104 = getelementptr inbounds [1000 x double], [1000 x double]* %10, i64 0, i64 %103
  %105 = load double, double* %104, align 8
  %106 = fsub double %101, %105
  %107 = load i32, i32* %2, align 4
  %108 = sext i32 %107 to i64
  %109 = getelementptr inbounds [100 x [100 x double]], [100 x [100 x double]]* %6, i64 0, i64 %108
  %110 = load i32, i32* %3, align 4
  %111 = sext i32 %110 to i64
  %112 = getelementptr inbounds [100 x double], [100 x double]* %109, i64 0, i64 %111
  %113 = load double, double* %112, align 8
  %114 = load i32, i32* %2, align 4
  %115 = sext i32 %114 to i64
  %116 = getelementptr inbounds [1000 x double], [1000 x double]* %10, i64 0, i64 %115
  %117 = load double, double* %116, align 8
  %118 = fsub double %113, %117
  %119 = fmul double %106, %118
  %120 = load i32, i32* %2, align 4
  %121 = sext i32 %120 to i64
  %122 = getelementptr inbounds [1000 x i32], [1000 x i32]* %5, i64 0, i64 %121
  %123 = load i32, i32* %122, align 4
  %124 = sitofp i32 %123 to double
  %125 = fdiv double %119, %124
  %126 = load i32, i32* %3, align 4
  %127 = sext i32 %126 to i64
  %128 = getelementptr inbounds [1000 x double], [1000 x double]* %8, i64 0, i64 %127
  store double %125, double* %128, align 8
  br label %129

129:                                              ; preds = %94
  %130 = load i32, i32* %3, align 4
  %131 = add nsw i32 %130, 1
  store i32 %131, i32* %3, align 4
  br label %87

132:                                              ; preds = %87
  store i32 0, i32* %3, align 4
  br label %133

133:                                              ; preds = %153, %132
  %134 = load i32, i32* %3, align 4
  %135 = load i32, i32* %2, align 4
  %136 = sext i32 %135 to i64
  %137 = getelementptr inbounds [1000 x i32], [1000 x i32]* %5, i64 0, i64 %136
  %138 = load i32, i32* %137, align 4
  %139 = icmp slt i32 %134, %138
  br i1 %139, label %140, label %156

140:                                              ; preds = %133
  %141 = load i32, i32* %2, align 4
  %142 = sext i32 %141 to i64
  %143 = getelementptr inbounds [1000 x double], [1000 x double]* %7, i64 0, i64 %142
  %144 = load double, double* %143, align 8
  %145 = load i32, i32* %3, align 4
  %146 = sext i32 %145 to i64
  %147 = getelementptr inbounds [1000 x double], [1000 x double]* %8, i64 0, i64 %146
  %148 = load double, double* %147, align 8
  %149 = fadd double %144, %148
  %150 = load i32, i32* %2, align 4
  %151 = sext i32 %150 to i64
  %152 = getelementptr inbounds [1000 x double], [1000 x double]* %7, i64 0, i64 %151
  store double %149, double* %152, align 8
  br label %153

153:                                              ; preds = %140
  %154 = load i32, i32* %3, align 4
  %155 = add nsw i32 %154, 1
  store i32 %155, i32* %3, align 4
  br label %133

156:                                              ; preds = %133
  %157 = load i32, i32* %2, align 4
  %158 = sext i32 %157 to i64
  %159 = getelementptr inbounds [1000 x double], [1000 x double]* %7, i64 0, i64 %158
  %160 = load double, double* %159, align 8
  %161 = call double @sqrt(double %160) #3
  %162 = load i32, i32* %2, align 4
  %163 = sext i32 %162 to i64
  %164 = getelementptr inbounds [1000 x double], [1000 x double]* %11, i64 0, i64 %163
  store double %161, double* %164, align 8
  br label %165

165:                                              ; preds = %156
  %166 = load i32, i32* %2, align 4
  %167 = add nsw i32 %166, 1
  store i32 %167, i32* %2, align 4
  br label %13

168:                                              ; preds = %13
  store i32 0, i32* %2, align 4
  br label %169

169:                                              ; preds = %179, %168
  %170 = load i32, i32* %2, align 4
  %171 = load i32, i32* %4, align 4
  %172 = icmp slt i32 %170, %171
  br i1 %172, label %173, label %182

173:                                              ; preds = %169
  %174 = load i32, i32* %2, align 4
  %175 = sext i32 %174 to i64
  %176 = getelementptr inbounds [1000 x double], [1000 x double]* %11, i64 0, i64 %175
  %177 = load double, double* %176, align 8
  %178 = call i32 (i8*, ...) @printf(i8* getelementptr inbounds ([6 x i8], [6 x i8]* @.str.2, i64 0, i64 0), double %177)
  br label %179

179:                                              ; preds = %173
  %180 = load i32, i32* %2, align 4
  %181 = add nsw i32 %180, 1
  store i32 %181, i32* %2, align 4
  br label %169

182:                                              ; preds = %169
  ret i32 0
}

declare dso_local i32 @__isoc99_scanf(i8*, ...) #1

; Function Attrs: nounwind
declare dso_local double @sqrt(double) #2

declare dso_local i32 @printf(i8*, ...) #1


!llvm.module.flags = !{!0}
!llvm.ident = !{!1}

!0 = !{i32 1, !"wchar_size", i32 4}
!1 = !{!"clang version 10.0.0-4ubuntu1 "}
